target datalayout = "e-m:e-p270:32:32-p271:32:32-p272:64:64-i64:64-i128:128-f80:128-n8:16:32:64-S128"
target triple = "x86_64-pc-linux-gnu"

%class.OopHandle = type { ptr }
%class.ConstantPoolCache = type { i32, ptr, %class.OopHandle, ptr, i64, ptr, ptr, ptr }
%class.Array = type { i32, [1 x %class.ResolvedIndyEntry] }
%class.ResolvedIndyEntry = type { ptr, i16, i16, i16, i8, i8 }
%class.anon.85 = type { i8 }

; Function Attrs: mustprogress nounwind uwtable
define linkonce_odr hidden noundef i64 @_ZZN5ArrayI17ResolvedIndyEntryE20base_offset_in_bytesEvENKUlvE_clEv(ptr noundef nonnull align 1 dereferenceable(1) %0) #1 comdat align 2 {
  %2 = alloca ptr, align 8
  %3 = alloca [24 x i8], align 16
  %4 = alloca ptr, align 8
  %5 = alloca ptr, align 8
  store ptr %0, ptr %2, align 8
  %6 = getelementptr inbounds [24 x i8], ptr %3, i64 0, i64 0
  store ptr %6, ptr %4, align 8
  %7 = load ptr, ptr %4, align 8
  %8 = getelementptr inbounds %class.Array, ptr %7, i32 0, i32 1
  store ptr %8, ptr %5, align 8
  %9 = load ptr, ptr %5, align 8
  %10 = getelementptr inbounds [24 x i8], ptr %3, i64 0, i64 0
  %11 = ptrtoint ptr %9 to i64
  %12 = ptrtoint ptr %10 to i64
  %13 = sub i64 %11, %12
  ret i64 %13
}

; Function Attrs: mustprogress nounwind uwtable
define linkonce_odr hidden noundef i32 @_ZN5ArrayI17ResolvedIndyEntryE20base_offset_in_bytesEv() #1 comdat align 2 {
  %1 = alloca %class.anon.85, align 1
  %2 = call noundef i64 @_ZZN5ArrayI17ResolvedIndyEntryE20base_offset_in_bytesEvENKUlvE_clEv(ptr noundef nonnull align 1 dereferenceable(1) %1)
  %3 = trunc i64 %2 to i32
  ret i32 %3
}

; Function Attrs: mustprogress nounwind uwtable
define linkonce_odr hidden noundef ptr @_ZN5ArrayI17ResolvedIndyEntryE4dataEv(ptr noundef nonnull align 8 dereferenceable(24) %0) #1 comdat align 2 {
  %2 = alloca ptr, align 8
  store ptr %0, ptr %2, align 8
  %3 = load ptr, ptr %2, align 8
  %4 = call noundef i32 @_ZN5ArrayI17ResolvedIndyEntryE20base_offset_in_bytesEv()
  %5 = sext i32 %4 to i64
  %6 = getelementptr inbounds i8, ptr %3, i64 %5
  ret ptr %6
}

; Function Attrs: mustprogress nounwind uwtable
define linkonce_odr hidden noundef ptr @_ZN5ArrayI17ResolvedIndyEntryE6adr_atEi(ptr noundef nonnull align 8 dereferenceable(24) %0, i32 noundef %1) #1 comdat align 2 {
  %3 = alloca ptr, align 8
  %4 = alloca i32, align 4
  store ptr %0, ptr %3, align 8
  store i32 %1, ptr %4, align 4
  %5 = load ptr, ptr %3, align 8
  %6 = call noundef ptr @_ZN5ArrayI17ResolvedIndyEntryE4dataEv(ptr noundef nonnull align 8 dereferenceable(24) %5)
  %7 = load i32, ptr %4, align 4
  %8 = sext i32 %7 to i64
  %9 = getelementptr inbounds %class.ResolvedIndyEntry, ptr %6, i64 %8
  ret ptr %9
}

; Function Attrs: mustprogress nounwind uwtable
define linkonce_odr hidden noundef ptr @_ZNK17ConstantPoolCache22resolved_indy_entry_atEi(ptr noundef nonnull align 8 dereferenceable(64) %0, i32 noundef %1) #1 comdat align 2 {
  %3 = alloca ptr, align 8
  %4 = alloca i32, align 4
  store ptr %0, ptr %3, align 8
  store i32 %1, ptr %4, align 4
  %5 = load ptr, ptr %3, align 8
  %6 = getelementptr inbounds %class.ConstantPoolCache, ptr %5, i32 0, i32 5
  %7 = load ptr, ptr %6, align 8
  %8 = load i32, ptr %4, align 4
  %9 = call noundef ptr @_ZN5ArrayI17ResolvedIndyEntryE6adr_atEi(ptr noundef nonnull align 8 dereferenceable(24) %7, i32 noundef %8)
  ret ptr %9
}

; Function Attrs: mustprogress nounwind uwtable
define linkonce_odr hidden noundef i32 @_ZNK5ArrayI17ResolvedIndyEntryE6lengthEv(ptr noundef nonnull align 8 dereferenceable(24) %0) #1 comdat align 2 {
  %2 = alloca ptr, align 8
  store ptr %0, ptr %2, align 8
  %3 = load ptr, ptr %2, align 8
  %4 = getelementptr inbounds %class.Array, ptr %3, i32 0, i32 0
  %5 = load i32, ptr %4, align 8
  ret i32 %5
}

; Function Attrs: mustprogress nounwind uwtable
define hidden void @_ZN17ConstantPoolCache23remove_unshareable_infoEv(ptr noundef nonnull align 8 dereferenceable(64) %0) #1 align 2 {
  %2 = alloca ptr, align 8
  %3 = alloca i32, align 4
  store ptr %0, ptr %2, align 8
  %4 = load ptr, ptr %2, align 8
  %5 = getelementptr inbounds %class.ConstantPoolCache, ptr %4, i32 0, i32 5
  %6 = load ptr, ptr %5, align 8
  %7 = icmp ne ptr %6, null
  br i1 %7, label %8, label %22

8:                                                ; preds = %1
  store i32 0, ptr %3, align 4
  br label %9

9:                                                ; preds = %18, %8
  %10 = load i32, ptr %3, align 4
  %11 = getelementptr inbounds %class.ConstantPoolCache, ptr %4, i32 0, i32 5
  %12 = load ptr, ptr %11, align 8
  %13 = call noundef i32 @_ZNK5ArrayI17ResolvedIndyEntryE6lengthEv(ptr noundef nonnull align 8 dereferenceable(24) %12)
  %14 = icmp slt i32 %10, %13
  br i1 %14, label %15, label %21

15:                                               ; preds = %9
  %16 = load i32, ptr %3, align 4
  %17 = call noundef ptr @_ZNK17ConstantPoolCache22resolved_indy_entry_atEi(ptr noundef nonnull align 8 dereferenceable(64) %4, i32 noundef %16)
  call void @_ZN17ResolvedIndyEntry23remove_unshareable_infoEv(ptr noundef nonnull align 8 dereferenceable(16) %17)
  br label %18

18:                                               ; preds = %15
  %19 = load i32, ptr %3, align 4
  %20 = add nsw i32 %19, 1
  store i32 %20, ptr %3, align 4
  br label %9, !llvm.loop !10

21:                                               ; preds = %9
  br label %22

22:                                               ; preds = %21, %1
  %23 = getelementptr inbounds %class.ConstantPoolCache, ptr %4, i32 0, i32 6
  %24 = load ptr, ptr %23, align 8
  %25 = icmp ne ptr %24, null
  br i1 %25, label %26, label %27

26:                                               ; preds = %22
  call void @_ZN17ConstantPoolCache50remove_resolved_field_entries_if_non_deterministicEv(ptr noundef nonnull align 8 dereferenceable(64) %4)
  br label %27

27:                                               ; preds = %26, %22
  %28 = getelementptr inbounds %class.ConstantPoolCache, ptr %4, i32 0, i32 7
  %29 = load ptr, ptr %28, align 8
  %30 = icmp ne ptr %29, null
  br i1 %30, label %31, label %32

31:                                               ; preds = %27
  call void @_ZN17ConstantPoolCache51remove_resolved_method_entries_if_non_deterministicEv(ptr noundef nonnull align 8 dereferenceable(64) %4)
  br label %32

32:                                               ; preds = %31, %27
  ret void
}