; Function Attrs: mustprogress nounwind uwtable
define hidden void @_ZN17ConstantPoolCache23remove_unshareable_infoEv(ptr nocapture noundef nonnull readonly align 8 dereferenceable(64) %0) local_unnamed_addr #0 align 2 {
  %2 = getelementptr inbounds i8, ptr %0, i64 40
  %3 = load ptr, ptr %2, align 8
  %.not = icmp eq ptr %3, null
  br i1 %.not, label %.loopexit, label %.preheader

.preheader:                                       ; preds = %1
  %4 = load i32, ptr %3, align 8
  %5 = icmp sgt i32 %4, 0
  br i1 %5, label %.lr.ph, label %.loopexit

.lr.ph:                                           ; preds = %.preheader, %.lr.ph
  %indvars.iv = phi i64 [ %indvars.iv.next, %.lr.ph ], [ 0, %.preheader ]
  %6 = phi ptr [ %9, %.lr.ph ], [ %3, %.preheader ]
  %7 = getelementptr inbounds i8, ptr %6, i64 8
  %8 = getelementptr inbounds %class.ResolvedIndyEntry, ptr %7, i64 %indvars.iv
  tail call void @_ZN17ResolvedIndyEntry23remove_unshareable_infoEv(ptr noundef nonnull align 8 dereferenceable(16) %8) #12
  %indvars.iv.next = add nuw nsw i64 %indvars.iv, 1
  %9 = load ptr, ptr %2, align 8
  %10 = load i32, ptr %9, align 8
  %11 = sext i32 %10 to i64
  %12 = icmp slt i64 %indvars.iv.next, %11
  br i1 %12, label %.lr.ph, label %.loopexit, !llvm.loop !11

.loopexit:                                        ; preds = %.lr.ph, %.preheader, %1
  %13 = getelementptr inbounds i8, ptr %0, i64 48
  %14 = load ptr, ptr %13, align 8
  %.not3 = icmp eq ptr %14, null
  br i1 %.not3, label %16, label %15

15:                                               ; preds = %.loopexit
  tail call void @_ZN17ConstantPoolCache50remove_resolved_field_entries_if_non_deterministicEv(ptr noundef nonnull align 8 dereferenceable(64) %0)
  br label %16

16:                                               ; preds = %15, %.loopexit
  %17 = getelementptr inbounds i8, ptr %0, i64 56
  %18 = load ptr, ptr %17, align 8
  %.not4 = icmp eq ptr %18, null
  br i1 %.not4, label %20, label %19

19:                                               ; preds = %16
  tail call void @_ZN17ConstantPoolCache51remove_resolved_method_entries_if_non_deterministicEv(ptr noundef nonnull align 8 dereferenceable(64) %0)
  br label %20

20:                                               ; preds = %19, %16
  ret void
}